(lp1
(dp2
S'url'
p3
S'https://i.imgur.com/E16Pdmt.gif'
p4
sS'comments'
p5
S'I made this using imgflip and a <a href="https://youtu.be/JvLjgcdMusw">YTP</a> that I particularly liked.'
p6
sS'timetuple'
p7
ctime
struct_time
p8
((I2016
I7
I16
I20
I59
I53
I5
I198
I1
t(dtRp9
sS'title'
p10
S'haha'
p11
sa.